; Function Attrs: nounwind uwtable
define internal void @auth_digest_md5_to_ascii(ptr noundef readonly captures(none) %0, ptr noundef %1) #3 {
  br label %3

3:                                                ; preds = %2, %3
  %indvars.iv = phi i64 [ 0, %2 ], [ %indvars.iv.next, %3 ]
  %4 = shl nuw nsw i64 %indvars.iv, 1
  %5 = getelementptr inbounds nuw i8, ptr %1, i64 %4
  %6 = getelementptr inbounds nuw i8, ptr %0, i64 %indvars.iv
  %7 = load i8, ptr %6, align 1, !tbaa !3
  %8 = zext i8 %7 to i32
  %9 = tail call i32 (ptr, i64, ptr, ...) @curl_msnprintf(ptr noundef %5, i64 noundef 3, ptr noundef nonnull @.str.2, i32 noundef %8) #10
  %indvars.iv.next = add nuw nsw i64 %indvars.iv, 1
  %exitcond.not = icmp eq i64 %indvars.iv.next, 16
  br i1 %exitcond.not, label %10, label %3, !llvm.loop !109

10:                                               ; preds = %3
  ret void
}